; Function Attrs: nounwind uwtable
define internal void @container_packet_free(ptr readnone captures(none) %0, ptr noundef %1) #3 {
  %3 = alloca ptr, align 8
  call void @llvm.lifetime.start.p0(i64 8, ptr nonnull %3) #16
  store ptr %1, ptr %3, align 8, !tbaa !23
  %.not5.i = icmp eq ptr %1, null
  br i1 %.not5.i, label %av_packet_free.exit, label %4

4:                                                ; preds = %2
  %5 = getelementptr inbounds nuw i8, ptr %1, i64 56
  %6 = load i32, ptr %5, align 8, !tbaa !22
  %7 = icmp sgt i32 %6, 0
  br i1 %7, label %.lr.ph.i.i.i, label %av_packet_unref.exit.i

.lr.ph.i.i.i:                                     ; preds = %4
  %8 = getelementptr inbounds nuw i8, ptr %1, i64 48
  br label %9

9:                                                ; preds = %9, %.lr.ph.i.i.i
  %indvars.iv.i.i.i = phi i64 [ 0, %.lr.ph.i.i.i ], [ %indvars.iv.next.i.i.i, %9 ]
  %10 = load ptr, ptr %8, align 8, !tbaa !21
  %11 = getelementptr inbounds nuw %struct.AVPacketSideData, ptr %10, i64 %indvars.iv.i.i.i
  tail call void @av_freep(ptr noundef %11) #16
  %indvars.iv.next.i.i.i = add nuw nsw i64 %indvars.iv.i.i.i, 1
  %12 = load i32, ptr %5, align 8, !tbaa !22
  %13 = sext i32 %12 to i64
  %14 = icmp slt i64 %indvars.iv.next.i.i.i, %13
  br i1 %14, label %9, label %av_packet_unref.exit.i, !llvm.loop !25

av_packet_unref.exit.i:                           ; preds = %9, %4
  %15 = getelementptr inbounds nuw i8, ptr %1, i64 48
  tail call void @av_freep(ptr noundef nonnull %15) #16
  store i32 0, ptr %5, align 8, !tbaa !22
  %16 = getelementptr inbounds nuw i8, ptr %1, i64 88
  tail call void @av_buffer_unref(ptr noundef nonnull %16) #16
  tail call void @av_buffer_unref(ptr noundef nonnull %1) #16
  tail call void @llvm.memset.p0.i64(ptr noundef nonnull align 8 dereferenceable(104) %1, i8 0, i64 96, i1 false)
  %17 = getelementptr inbounds nuw i8, ptr %1, i64 8
  store i64 -9223372036854775808, ptr %17, align 8, !tbaa !4
  %18 = getelementptr inbounds nuw i8, ptr %1, i64 16
  store i64 -9223372036854775808, ptr %18, align 8, !tbaa !15
  %19 = getelementptr inbounds nuw i8, ptr %1, i64 72
  store i64 -1, ptr %19, align 8, !tbaa !16
  %20 = getelementptr inbounds nuw i8, ptr %1, i64 96
  store i64 4294967296, ptr %20, align 8
  call void @av_freep(ptr noundef nonnull %3) #16
  br label %av_packet_free.exit

av_packet_free.exit:                              ; preds = %2, %av_packet_unref.exit.i
  call void @llvm.lifetime.end.p0(i64 8, ptr nonnull %3) #16
  ret void
}